; Function Attrs: mustprogress uwtable
define noundef i32 @paramTimezoneDefault(ptr readnone captures(none) %0, ptr noundef %1, i32 noundef %2, ptr noundef %3) #1 {
  %5 = alloca [100 x i16], align 16
  %6 = alloca [100 x i8], align 16
  %7 = load i32, ptr %3, align 4, !tbaa !13
  %8 = icmp slt i32 %7, 1
  br i1 %8, label %9, label %30

9:                                                ; preds = %4
  call void @llvm.lifetime.start.p0(i64 200, ptr nonnull %5) #26
  call void @llvm.lifetime.start.p0(i64 100, ptr nonnull %6) #26
  %10 = call i32 @ucal_getDefaultTimeZone_77(ptr noundef nonnull %5, i32 noundef 100, ptr noundef nonnull %3)
  %11 = load i32, ptr %3, align 4, !tbaa !13
  %12 = icmp slt i32 %11, 1
  %13 = icmp sgt i32 %10, 0
  %or.cond = select i1 %12, i1 %13, i1 false
  br i1 %or.cond, label %14, label %29

14:                                               ; preds = %9
  %15 = add nuw nsw i32 %10, 1
  call void @u_UCharsToChars_77(ptr noundef nonnull %5, ptr noundef nonnull %6, i32 noundef %15)
  %16 = load i32, ptr %3, align 4, !tbaa !13
  %17 = icmp sgt i32 %16, 0
  br i1 %17, label %21, label %18

18:                                               ; preds = %14
  %19 = call i64 @strlen(ptr noundef nonnull dereferenceable(1) %6) #29
  %20 = trunc i64 %19 to i32
  %.not22.i = icmp eq ptr %1, null
  br i1 %.not22.i, label %_ZL20stringToStringBufferPciPKcP10UErrorCode.exit, label %.sink.split.i

21:                                               ; preds = %14
  %22 = call ptr @u_errorName_77(i32 noundef %16)
  %23 = call i64 @strlen(ptr noundef nonnull dereferenceable(1) %22) #29
  %24 = trunc i64 %23 to i32
  %.not21.i = icmp eq ptr %1, null
  br i1 %.not21.i, label %_ZL20stringToStringBufferPciPKcP10UErrorCode.exit, label %.sink.split.i

.sink.split.i:                                    ; preds = %21, %18
  %.sink25.i = phi i32 [ %20, %18 ], [ %24, %21 ]
  %.sink.i = phi ptr [ %6, %18 ], [ %22, %21 ]
  %25 = call i32 @uprv_min_77(i32 noundef %.sink25.i, i32 noundef %2)
  %26 = sext i32 %25 to i64
  %27 = call ptr @strncpy(ptr noundef nonnull %1, ptr noundef nonnull %.sink.i, i64 noundef %26) #26
  br label %_ZL20stringToStringBufferPciPKcP10UErrorCode.exit

_ZL20stringToStringBufferPciPKcP10UErrorCode.exit: ; preds = %18, %21, %.sink.split.i
  %.018.i = phi i32 [ %20, %18 ], [ %24, %21 ], [ %.sink25.i, %.sink.split.i ]
  %28 = call noundef i32 @u_terminateChars_77(ptr noundef %1, i32 noundef %2, i32 noundef %.018.i, ptr noundef nonnull %3)
  br label %29

29:                                               ; preds = %9, %_ZL20stringToStringBufferPciPKcP10UErrorCode.exit
  %.1 = phi i32 [ %28, %_ZL20stringToStringBufferPciPKcP10UErrorCode.exit ], [ 0, %9 ]
  call void @llvm.lifetime.end.p0(i64 100, ptr nonnull %6) #26
  call void @llvm.lifetime.end.p0(i64 200, ptr nonnull %5) #26
  br label %30

30:                                               ; preds = %4, %29
  %.0 = phi i32 [ %.1, %29 ], [ 0, %4 ]
  ret i32 %.0
}